###############################################################################
#                                                                             #
# IAR C/C++ Compiler V8.10.1.10194/W32 for 8051         05/Nov/2019  15:27:21 #
# Copyright 2004-2011 IAR Systems AB.                                         #
#                                                                             #
#    Core               =  plain                                              #
#    Code model         =  banked                                             #
#    Data model         =  large                                              #
#    Calling convention =  xdata reentrant                                    #
#    Constant location  =  data_rom                                           #
#    Dptr setup         =  1,16                                               #
#    Source file        =  D:\Œ‰∫∫¥¥Œ¨ÃÿŒÔ¡™Õ¯ µ—Èœ‰◊ ¡œ\CVT-IOT-VSπ‚≈Ã\Zigbe #
#                          e≤ø∑÷£®ŒÔ¡™Õ¯£©\ZStack-CC2530-eV1.3\Projects\zstac #
#                          k\Samples\SensorApp\Source\Sensor.c                #
#    Command line       =  -f D:\Œ‰∫∫¥¥Œ¨ÃÿŒÔ¡™Õ¯ µ—Èœ‰◊ ¡œ\CVT-IOT-VSπ‚≈Ã\Zi #
#                          gbee≤ø∑÷£®ŒÔ¡™Õ¯£©\ZStack-CC2530-eV1.3\Projects\zs #
#                          tack\Samples\SensorApp\CC2530DB\..\..\..\Tools\CC2 #
#                          530DB\f8wCoord.cfg (-DCPU32MHZ -DROOT=__near_func  #
#                          -DMAC_CFG_APP_PENDING_QUEUE=TRUE                   #
#                          -DMAC_CFG_TX_DATA_MAX=5 -DMAC_CFG_TX_MAX=8         #
#                          -DMAC_CFG_RX_MAX=5 -DZDO_COORDINATOR -DRTR_NWK)    #
#                          -f D:\Œ‰∫∫¥¥Œ¨ÃÿŒÔ¡™Õ¯ µ—Èœ‰◊ ¡œ\CVT-IOT-VSπ‚≈Ã\Zi #
#                          gbee≤ø∑÷£®ŒÔ¡™Õ¯£©\ZStack-CC2530-eV1.3\Projects\zs #
#                          tack\Samples\SensorApp\CC2530DB\..\..\..\Tools\CC2 #
#                          530DB\f8wConfig.cfg (-DZIGBEEPRO -DSECURE=0        #
#                          -DZG_SECURE_DYNAMIC=0 -DREFLECTOR                  #
#                          -DDEFAULT_CHANLIST=0x00200000                      #
#                          -DZDAPP_CONFIG_PAN_ID=0x15 -DNWK_START_DELAY=100   #
#                          -DEXTENDED_JOINING_RANDOM_MASK=0x007F              #
#                          -DBEACON_REQUEST_DELAY=100                         #
#                          -DBEACON_REQ_DELAY_MASK=0x00FF                     #
#                          -DLINK_STATUS_JITTER_MASK=0x007F                   #
#                          -DROUTE_EXPIRY_TIME=30 -DAPSC_ACK_WAIT_DURATION_PO #
#                          LLED=3000 -DNWK_INDIRECT_MSG_TIMEOUT=7             #
#                          -DMAX_RREQ_ENTRIES=8 -DAPSC_MAX_FRAME_RETRIES=3    #
#                          -DNWK_MAX_DATA_RETRIES=2                           #
#                          -DMAX_POLL_FAILURE_RETRIES=2 -DMAX_BCAST=9         #
#                          -DAPS_MAX_GROUPS=16 -DMAX_RTG_ENTRIES=40           #
#                          -DNWK_MAX_BINDING_ENTRIES=4                        #
#                          -DMAX_BINDING_CLUSTER_IDS=4 "-DDEFAULT_KEY={0x01,  #
#                          0x03, 0x05, 0x07, 0x09, 0x0B, 0x0D, 0x0F, 0x00,    #
#                          0x02, 0x04, 0x06, 0x08, 0x0A, 0x0C, 0x0D}"         #
#                          -DMAC_MAX_FRAME_SIZE=116                           #
#                          -DZDNWKMGR_MIN_TRANSMISSIONS=20 "-DCONST=const     #
#                          __code" -DGENERIC=__generic                        #
#                          -DRFD_RCVC_ALWAYS_ON=FALSE -DPOLL_RATE=1000        #
#                          -DQUEUED_POLL_RATE=100 -DRESPONSE_POLL_RATE=100)   #
#                          -DREJOIN_POLL_RATE=440 D:\Œ‰∫∫¥¥Œ¨ÃÿŒÔ¡™Õ¯ µ—Èœ‰◊  #
#                          ¡œ\CVT-IOT-VSπ‚≈Ã\Zigbee≤ø∑÷£®ŒÔ¡™Õ¯£©\ZStack-CC25 #
#                          30-eV1.3\Projects\zstack\Samples\SensorApp\Source\ #
#                          Sensor.c -D ZTOOL_P1 -D xMT_TASK -D MT_SYS_FUNC    #
#                          -D MT_ZDO_FUNC -D xLCD_SUPPORTED=DEBUG -lC         #
#                          D:\Œ‰∫∫¥¥Œ¨ÃÿŒÔ¡™Õ¯ µ—Èœ‰◊ ¡œ\CVT-IOT-VSπ‚≈Ã\Zigbe #
#                          e≤ø∑÷£®ŒÔ¡™Õ¯£©\ZStack-CC2530-eV1.3\Projects\zstac #
#                          k\Samples\SensorApp\CC2530DB\CoordinatorEB\List\   #
#                          -lA D:\Œ‰∫∫¥¥Œ¨ÃÿŒÔ¡™Õ¯ µ—Èœ‰◊ ¡œ\CVT-IOT-VSπ‚≈Ã\Z #
#                          igbee≤ø∑÷£®ŒÔ¡™Õ¯£©\ZStack-CC2530-eV1.3\Projects\z #
#                          stack\Samples\SensorApp\CC2530DB\CoordinatorEB\Lis #
#                          t\ --diag_suppress Pe001,Pa010 -o                  #
#                          D:\Œ‰∫∫¥¥Œ¨ÃÿŒÔ¡™Õ¯ µ—Èœ‰◊ ¡œ\CVT-IOT-VSπ‚≈Ã\Zigbe #
#                          e≤ø∑÷£®ŒÔ¡™Õ¯£©\ZStack-CC2530-eV1.3\Projects\zstac #
#                          k\Samples\SensorApp\CC2530DB\CoordinatorEB\Obj\    #
#                          -e --no_code_motion --debug --core=plain           #
#                          --dptr=16,1 --data_model=large                     #
#                          --code_model=banked --calling_convention=xdata_ree #
#                          ntrant --place_constants=data_rom                  #
#                          --nr_virtual_regs 16 -I D:\Œ‰∫∫¥¥Œ¨ÃÿŒÔ¡™Õ¯ µ—Èœ‰◊ #
#                           ¡œ\CVT-IOT-VSπ‚≈Ã\Zigbee≤ø∑÷£®ŒÔ¡™Õ¯£©\ZStack-CC2 #
#                          530-eV1.3\Projects\zstack\Samples\SensorApp\CC2530 #
#                          DB\ -I D:\Œ‰∫∫¥¥Œ¨ÃÿŒÔ¡™Õ¯ µ—Èœ‰◊ ¡œ\CVT-IOT-VSπ‚≈ #
#                          Ã\Zigbee≤ø∑÷£®ŒÔ¡™Õ¯£©\ZStack-CC2530-eV1.3\Project #
#                          s\zstack\Samples\SensorApp\CC2530DB\..\Source\ -I  #
#                          D:\Œ‰∫∫¥¥Œ¨ÃÿŒÔ¡™Õ¯ µ—Èœ‰◊ ¡œ\CVT-IOT-VSπ‚≈Ã\Zigbe #
#                          e≤ø∑÷£®ŒÔ¡™Õ¯£©\ZStack-CC2530-eV1.3\Projects\zstac #
#                          k\Samples\SensorApp\CC2530DB\..\..\..\ZMain\TI2530 #
#                          DB\ -I D:\Œ‰∫∫¥¥Œ¨ÃÿŒÔ¡™Õ¯ µ—Èœ‰◊ ¡œ\CVT-IOT-VSπ‚≈ #
#                          Ã\Zigbee≤ø∑÷£®ŒÔ¡™Õ¯£©\ZStack-CC2530-eV1.3\Project #
#                          s\zstack\Samples\SensorApp\CC2530DB\..\..\..\..\.. #
#                          \Components\hal\include\ -I                        #
#                          D:\Œ‰∫∫¥¥Œ¨ÃÿŒÔ¡™Õ¯ µ—Èœ‰◊ ¡œ\CVT-IOT-VSπ‚≈Ã\Zigbe #
#                          e≤ø∑÷£®ŒÔ¡™Õ¯£©\ZStack-CC2530-eV1.3\Projects\zstac #
#                          k\Samples\SensorApp\CC2530DB\..\..\..\..\..\Compon #
#                          ents\hal\target\CC2530EB\ -I                       #
#                          D:\Œ‰∫∫¥¥Œ¨ÃÿŒÔ¡™Õ¯ µ—Èœ‰◊ ¡œ\CVT-IOT-VSπ‚≈Ã\Zigbe #
#                          e≤ø∑÷£®ŒÔ¡™Õ¯£©\ZStack-CC2530-eV1.3\Projects\zstac #
#                          k\Samples\SensorApp\CC2530DB\..\..\..\..\..\Compon #
#                          ents\mac\include\ -I D:\Œ‰∫∫¥¥Œ¨ÃÿŒÔ¡™Õ¯ µ—Èœ‰◊ ¡œ #
#                          \CVT-IOT-VSπ‚≈Ã\Zigbee≤ø∑÷£®ŒÔ¡™Õ¯£©\ZStack-CC2530 #
#                          -eV1.3\Projects\zstack\Samples\SensorApp\CC2530DB\ #
#                          ..\..\..\..\..\Components\mac\high_level\ -I       #
#                          D:\Œ‰∫∫¥¥Œ¨ÃÿŒÔ¡™Õ¯ µ—Èœ‰◊ ¡œ\CVT-IOT-VSπ‚≈Ã\Zigbe #
#                          e≤ø∑÷£®ŒÔ¡™Õ¯£©\ZStack-CC2530-eV1.3\Projects\zstac #
#                          k\Samples\SensorApp\CC2530DB\..\..\..\..\..\Compon #
#                          ents\mac\low_level\srf04\ -I                       #
#                          D:\Œ‰∫∫¥¥Œ¨ÃÿŒÔ¡™Õ¯ µ—Èœ‰◊ ¡œ\CVT-IOT-VSπ‚≈Ã\Zigbe #
#                          e≤ø∑÷£®ŒÔ¡™Õ¯£©\ZStack-CC2530-eV1.3\Projects\zstac #
#                          k\Samples\SensorApp\CC2530DB\..\..\..\..\..\Compon #
#                          ents\mac\low_level\srf04\single_chip\ -I           #
#                          D:\Œ‰∫∫¥¥Œ¨ÃÿŒÔ¡™Õ¯ µ—Èœ‰◊ ¡œ\CVT-IOT-VSπ‚≈Ã\Zigbe #
#                          e≤ø∑÷£®ŒÔ¡™Õ¯£©\ZStack-CC2530-eV1.3\Projects\zstac #
#                          k\Samples\SensorApp\CC2530DB\..\..\..\..\..\Compon #
#                          ents\mt\ -I D:\Œ‰∫∫¥¥Œ¨ÃÿŒÔ¡™Õ¯ µ—Èœ‰◊ ¡œ\CVT-IOT- #
#                          VSπ‚≈Ã\Zigbee≤ø∑÷£®ŒÔ¡™Õ¯£©\ZStack-CC2530-eV1.3\Pr #
#                          ojects\zstack\Samples\SensorApp\CC2530DB\..\..\..\ #
#                          ..\..\Components\osal\include\ -I                  #
#                          D:\Œ‰∫∫¥¥Œ¨ÃÿŒÔ¡™Õ¯ µ—Èœ‰◊ ¡œ\CVT-IOT-VSπ‚≈Ã\Zigbe #
#                          e≤ø∑÷£®ŒÔ¡™Õ¯£©\ZStack-CC2530-eV1.3\Projects\zstac #
#                          k\Samples\SensorApp\CC2530DB\..\..\..\..\..\Compon #
#                          ents\services\saddr\ -I D:\Œ‰∫∫¥¥Œ¨ÃÿŒÔ¡™Õ¯ µ—Èœ‰◊ #
#                           ¡œ\CVT-IOT-VSπ‚≈Ã\Zigbee≤ø∑÷£®ŒÔ¡™Õ¯£©\ZStack-CC2 #
#                          530-eV1.3\Projects\zstack\Samples\SensorApp\CC2530 #
#                          DB\..\..\..\..\..\Components\services\sdata\ -I    #
#                          D:\Œ‰∫∫¥¥Œ¨ÃÿŒÔ¡™Õ¯ µ—Èœ‰◊ ¡œ\CVT-IOT-VSπ‚≈Ã\Zigbe #
#                          e≤ø∑÷£®ŒÔ¡™Õ¯£©\ZStack-CC2530-eV1.3\Projects\zstac #
#                          k\Samples\SensorApp\CC2530DB\..\..\..\..\..\Compon #
#                          ents\stack\af\ -I D:\Œ‰∫∫¥¥Œ¨ÃÿŒÔ¡™Õ¯ µ—Èœ‰◊ ¡œ\CV #
#                          T-IOT-VSπ‚≈Ã\Zigbee≤ø∑÷£®ŒÔ¡™Õ¯£©\ZStack-CC2530-eV #
#                          1.3\Projects\zstack\Samples\SensorApp\CC2530DB\..\ #
#                          ..\..\..\..\Components\stack\nwk\ -I               #
#                          D:\Œ‰∫∫¥¥Œ¨ÃÿŒÔ¡™Õ¯ µ—Èœ‰◊ ¡œ\CVT-IOT-VSπ‚≈Ã\Zigbe #
#                          e≤ø∑÷£®ŒÔ¡™Õ¯£©\ZStack-CC2530-eV1.3\Projects\zstac #
#                          k\Samples\SensorApp\CC2530DB\..\..\..\..\..\Compon #
#                          ents\stack\sapi\ -I D:\Œ‰∫∫¥¥Œ¨ÃÿŒÔ¡™Õ¯ µ—Èœ‰◊ ¡œ\ #
#                          CVT-IOT-VSπ‚≈Ã\Zigbee≤ø∑÷£®ŒÔ¡™Õ¯£©\ZStack-CC2530- #
#                          eV1.3\Projects\zstack\Samples\SensorApp\CC2530DB\. #
#                          .\..\..\..\..\Components\stack\sec\ -I             #
#                          D:\Œ‰∫∫¥¥Œ¨ÃÿŒÔ¡™Õ¯ µ—Èœ‰◊ ¡œ\CVT-IOT-VSπ‚≈Ã\Zigbe #
#                          e≤ø∑÷£®ŒÔ¡™Õ¯£©\ZStack-CC2530-eV1.3\Projects\zstac #
#                          k\Samples\SensorApp\CC2530DB\..\..\..\..\..\Compon #
#                          ents\stack\sys\ -I D:\Œ‰∫∫¥¥Œ¨ÃÿŒÔ¡™Õ¯ µ—Èœ‰◊ ¡œ\C #
#                          VT-IOT-VSπ‚≈Ã\Zigbee≤ø∑÷£®ŒÔ¡™Õ¯£©\ZStack-CC2530-e #
#                          V1.3\Projects\zstack\Samples\SensorApp\CC2530DB\.. #
#                          \..\..\..\..\Components\stack\zdo\ -I              #
#                          D:\Œ‰∫∫¥¥Œ¨ÃÿŒÔ¡™Õ¯ µ—Èœ‰◊ ¡œ\CVT-IOT-VSπ‚≈Ã\Zigbe #
#                          e≤ø∑÷£®ŒÔ¡™Õ¯£©\ZStack-CC2530-eV1.3\Projects\zstac #
#                          k\Samples\SensorApp\CC2530DB\..\..\..\..\..\Compon #
#                          ents\zmac\ -I D:\Œ‰∫∫¥¥Œ¨ÃÿŒÔ¡™Õ¯ µ—Èœ‰◊ ¡œ\CVT-IO #
#                          T-VSπ‚≈Ã\Zigbee≤ø∑÷£®ŒÔ¡™Õ¯£©\ZStack-CC2530-eV1.3\ #
#                          Projects\zstack\Samples\SensorApp\CC2530DB\..\..\. #
#                          .\..\..\Components\zmac\f8w\ -Ohz                  #
#                          --require_prototypes                               #
#    List file          =  D:\Œ‰∫∫¥¥Œ¨ÃÿŒÔ¡™Õ¯ µ—Èœ‰◊ ¡œ\CVT-IOT-VSπ‚≈Ã\Zigbe #
#                          e≤ø∑÷£®ŒÔ¡™Õ¯£©\ZStack-CC2530-eV1.3\Projects\zstac #
#                          k\Samples\SensorApp\CC2530DB\CoordinatorEB\List\Se #
#                          nsor.lst                                           #
#    Object file        =  D:\Œ‰∫∫¥¥Œ¨ÃÿŒÔ¡™Õ¯ µ—Èœ‰◊ ¡œ\CVT-IOT-VSπ‚≈Ã\Zigbe #
#                          e≤ø∑÷£®ŒÔ¡™Õ¯£©\ZStack-CC2530-eV1.3\Projects\zstac #
#                          k\Samples\SensorApp\CC2530DB\CoordinatorEB\Obj\Sen #
#                          sor.r51                                            #
#                                                                             #
#                                                                             #
###############################################################################

D:\Œ‰∫∫¥¥Œ¨ÃÿŒÔ¡™Õ¯ µ—Èœ‰◊ ¡œ\CVT-IOT-VSπ‚≈Ã\Zigbee≤ø∑÷£®ŒÔ¡™Õ¯£©\ZStack-CC2530-eV1.3\Projects\zstack\Samples\SensorApp\Source\Sensor.c
      1          #include "Sensor.h"
      2          #include "iocc2530.h"

   \                                 In  segment SFR_AN, at 0x8c
   \   unsigned char volatile __sfr PICTL
   \                     PICTL:
   \   000000                DS 1

   \                                 In  segment SFR_AN, at 0x8d
   \   unsigned char volatile __sfr P1IEN
   \                     P1IEN:
   \   000000                DS 1

   \                                 In  segment SFR_AN, at 0x9a
   \   unsigned char volatile __sfr IEN2
   \                     IEN2:
   \   000000                DS 1

   \                                 In  segment SFR_AN, at 0xb4
   \   unsigned char volatile __sfr ADCCON1
   \                     ADCCON1:
   \   000000                DS 1

   \                                 In  segment SFR_AN, at 0xb6
   \   unsigned char volatile __sfr ADCCON3
   \                     ADCCON3:
   \   000000                DS 1

   \                                 In  segment SFR_AN, at 0xba
   \   unsigned char volatile __sfr ADCL
   \                     ADCL:
   \   000000                DS 1

   \                                 In  segment SFR_AN, at 0xbb
   \   unsigned char volatile __sfr ADCH
   \                     ADCH:
   \   000000                DS 1

   \                                 In  segment SFR_AN, at 0xf2
   \   unsigned char volatile __sfr APCFG
   \                     APCFG:
   \   000000                DS 1

   \                                 In  segment SFR_AN, at 0xf4
   \   unsigned char volatile __sfr P1SEL
   \                     P1SEL:
   \   000000                DS 1

   \                                 In  segment SFR_AN, at 0xfe
   \   unsigned char volatile __sfr P1DIR
   \                     P1DIR:
   \   000000                DS 1
      3          #include "hal_board.h"
      4          #include "hal_defs.h"
      5          #include "hal_mcu.h"
      6          #include "hal_types.h"
      7          #include "hal_adc.h"
      8          
      9          /*****************************************************************************
     10           ∫Ø ˝…˘√˜
     11          *****************************************************************************/
     12          void Sensor_PIN_INT(void);
     13          uint16 ReadAdcValue(uint8 ChannelNum,uint8 DecimationRate,uint8 RefVoltage);
     14          uint8 ReadTemp(void);
     15          
     16          /*****************************************************************************
     17          ∫Ø ˝π¶ƒ‹:∂¡≥ˆADø⁄µƒ ˝æ›
     18           ‰»Î≤Œ ˝:ChannelNum:≤…ºØµƒÕ®µ¿∫≈  0-0xF
     19                              1000: AIN0®CAIN1
     20                              1001: AIN2®CAIN3
     21                              1010: AIN4®CAIN5
     22                              1011: AIN6®CAIN7
     23                              1100: GND
     24                              1101: Reserved
     25                              1110: Temperature sensor
     26                              1111: VDD/3
     27                   DecimationRate:∑÷±Á¬   00: 64 decimation rate (7 bits ENOB)
     28                              01: 128 decimation rate (9 bits ENOB)
     29                              10: 256 decimation rate (10 bits ENOB)
     30                              11: 512 decimation rate (12 bits ENOB)
     31          RefVoltage:≤ŒøºµÁ—π:00: Internal reference
     32                              01: External reference on AIN7 pin
     33                              10: AVDD5 pin
     34                              11: External reference on AIN6®CAIN7 differential input
     35          ∑µªÿ÷µ:16bitµƒ≤…ºØ ˝æ›
     36          */

   \                                 In  segment BANKED_CODE, align 1, keep-with-next
     37          uint16 ReadAdcValue(uint8 ChannelNum,uint8 DecimationRate,uint8 RefVoltage)
   \                     ReadAdcValue:
     38          { 
   \   000000   74F6         MOV     A,#-0xa
   \   000002   12....       LCALL   ?BANKED_ENTER_XDATA
   \   000005                ; Saved register size: 10
   \   000005                ; Auto size: 0
   \   000005   EA           MOV     A,R2
   \   000006   FC           MOV     R4,A
   \   000007   EB           MOV     A,R3
   \   000008   FD           MOV     R5,A
     39            uint16 AdValue;
     40            if(ChannelNum == 0xe){//∆¨ƒ⁄Œ¬∂»µΩADC_SOC
   \   000009   740E         MOV     A,#0xe
   \   00000B   69           XRL     A,R1
   \   00000C   90624B       MOV     DPTR,#0x624b
   \   00000F   7004         JNZ     ??ReadAdcValue_0
     41              TR0 = 1;
   \   000011   7401         MOV     A,#0x1
   \   000013   8001         SJMP    ??ReadAdcValue_1
     42              ATEST = 1;
     43            }
     44            else{
     45              TR0 = 0;
   \                     ??ReadAdcValue_0:
   \   000015   E4           CLR     A
   \                     ??ReadAdcValue_1:
   \   000016   F0           MOVX    @DPTR,A
     46              ATEST = 0;
   \   000017   9061BD       MOV     DPTR,#0x61bd
   \   00001A   F0           MOVX    @DPTR,A
     47            } 
     48            ADCCON3 = ChannelNum&0xf;
   \   00001B   740F         MOV     A,#0xf
   \   00001D   59           ANL     A,R1
   \   00001E   F5B6         MOV     0xb6,A
     49            ADCCON3 = ADCCON3 | ((DecimationRate&0x3)<<4);
   \   000020   7403         MOV     A,#0x3
   \   000022   5C           ANL     A,R4
   \   000023   C4           SWAP    A
   \   000024   42B6         ORL     0xb6,A
     50            ADCCON3 = ADCCON3 | ((RefVoltage&0x3)<<6);   
   \   000026   ED           MOV     A,R5
   \   000027   C4           SWAP    A
   \   000028   33           RLC     A
   \   000029   33           RLC     A
   \   00002A   54C0         ANL     A,#0xc0
   \   00002C   42B6         ORL     0xb6,A
     51            ADCCON1 = ADCCON1 | (0x3<<4);//ADCCON1.ST = 1 ±∆Ù∂Ø
   \   00002E   43B430       ORL     0xb4,#0x30
     52            AdValue = ADCL; //«Â≥˝EOC 
   \   000031   E5BA         MOV     A,0xba
     53            AdValue = ADCH; 
   \   000033   E5BB         MOV     A,0xbb
     54            ADCCON1 = ADCCON1 | (0x1<<6);//∆Ù∂Ø◊™ªª
   \   000035   43B440       ORL     0xb4,#0x40
     55            while(!(ADCCON1&0x80));
   \                     ??ReadAdcValue_2:
   \   000038   E5B4         MOV     A,0xb4
   \   00003A   A2E7         MOV     C,0xE0 /* A   */.7
   \   00003C   50FA         JNC     ??ReadAdcValue_2
     56            AdValue = ADCH;
   \   00003E   E5BB         MOV     A,0xbb
   \   000040   F5..         MOV     ?V0 + 0,A
     57            AdValue = (AdValue<<6) + (ADCL>>2);
   \   000042   E5BA         MOV     A,0xba
   \   000044   FA           MOV     R2,A
     58            ADCCON1 =  ADCCON1 & 0x7f;
   \   000045   53B47F       ANL     0xb4,#0x7f
     59            return AdValue;
   \   000048   75..00       MOV     ?V0 + 1,#0x0
   \   00004B   7406         MOV     A,#0x6
   \   00004D   78..         MOV     R0,#?V0 + 0
   \   00004F   12....       LCALL   ?S_SHL
   \   000052   EA           MOV     A,R2
   \   000053   13           RRC     A
   \   000054   13           RRC     A
   \   000055   543F         ANL     A,#0x3f
   \   000057   FA           MOV     R2,A
   \   000058   E5..         MOV     A,?V0 + 0
   \   00005A   2A           ADD     A,R2
   \   00005B   FA           MOV     R2,A
   \   00005C   E5..         MOV     A,?V0 + 1
   \   00005E   3400         ADDC    A,#0x0
   \   000060   FB           MOV     R3,A
   \   000061   7F02         MOV     R7,#0x2
   \   000063   02....       LJMP    ?BANKED_LEAVE_XDATA
   \   000066                REQUIRE ADCCON3
   \   000066                REQUIRE ADCCON1
   \   000066                REQUIRE ADCL
   \   000066                REQUIRE ADCH
     60          }
     61          
     62          /*****************************************************************************
     63            void Sensor_PIN_INT(void)
     64            ¥´∏–∆˜º∞ADC I/Oø⁄≥ı ºªØ.
     65          *****************************************************************************/

   \                                 In  segment BANKED_CODE, align 1, keep-with-next
     66          void Sensor_PIN_INT(void)
   \                     Sensor_PIN_INT:
     67          {
   \   000000                ; Saved register size: 0
   \   000000                ; Auto size: 0
     68            APCFG = (0x1<1)|(0x1<<4)|(0x1<<6);//P01,P04,P06Œ™ADCø⁄ 
   \   000000   75F250       MOV     0xf2,#0x50
     69            //”√”⁄Œ¬ ™∂»≤‚¡ø
     70            P1SEL &= ~((1<<6)|(1<<7));//P16,P17Œ™GPIO        
   \   000003   53F43F       ANL     0xf4,#0x3f
     71            P1DIR |= (1<<6)|(1<<7);//P16,P17Œ™OUTPUT    
   \   000006   43FEC0       ORL     0xfe,#0xc0
     72          
     73            P1SEL |= (1<<3);//P13Œ™Õ‚…Ëπ¶ƒ‹       
   \   000009   43F408       ORL     0xf4,#0x8
     74            PICTL &= ~(1<<1); //P10~P13…œ…˝—ÿ¥•∑¢
   \   00000C   538CFD       ANL     0x8c,#0xfd
     75            P1IEN |= (1<<3);//P13÷–∂œ πƒ‹
   \   00000F   438D08       ORL     0x8d,#0x8
     76            IEN2 |= (1<<4);//P1ø⁄÷–∂œ πƒ‹
   \   000012   439A10       ORL     0x9a,#0x10
     77          
     78          }
   \   000015   02....       LJMP    ?BRET
   \   000018                REQUIRE APCFG
   \   000018                REQUIRE P1SEL
   \   000018                REQUIRE P1DIR
   \   000018                REQUIRE PICTL
   \   000018                REQUIRE P1IEN
   \   000018                REQUIRE IEN2
     79          

   \                                 In  segment BANKED_CODE, align 1, keep-with-next
     80          uint8 ReadTemp(void)
   \                     ReadTemp:
     81          {
   \   000000   74F0         MOV     A,#-0x10
   \   000002   12....       LCALL   ?BANKED_ENTER_XDATA
   \   000005                ; Saved register size: 16
   \   000005                ; Auto size: 0
     82              uint8 temp;
     83              uint16 AdValue;
     84              float RHTValue;
     85          
     86              //Sensor_PIN_INT();
     87              AdValue = ReadAdcValue(0xe,3,2);
     88              RHTValue = AdValue;
     89              RHTValue = RHTValue /1480 * 25;    //÷˜∞ÂŒ¬∂»
     90              temp = (uint8)RHTValue;
     91              
     92              return temp;
   \   000005                ; Setup parameters for call to function ReadAdcValue
   \   000005   7B02         MOV     R3,#0x2
   \   000007   7A03         MOV     R2,#0x3
   \   000009   790E         MOV     R1,#0xe
   \   00000B   12....       LCALL   ??ReadAdcValue?relay
   \   00000E   8A..         MOV     ?V0 + 0,R2
   \   000010   8B..         MOV     ?V0 + 1,R3
   \   000012   E4           CLR     A
   \   000013   F5..         MOV     ?V0 + 2,A
   \   000015   F5..         MOV     ?V0 + 3,A
   \   000017   78..         MOV     R0,#?V0 + 0
   \   000019   12....       LCALL   ?UL_TO_FLT
   \   00001C   90....       MOV     DPTR,#__Constant_44b90000
   \   00001F   78..         MOV     R0,#?V0 + 4
   \   000021   12....       LCALL   ?L_MOV_X
   \   000024   78..         MOV     R0,#?V0 + 0
   \   000026   79..         MOV     R1,#?V0 + 4
   \   000028   12....       LCALL   ?FLT_DIV
   \   00002B   90....       MOV     DPTR,#__Constant_41c80000
   \   00002E   78..         MOV     R0,#?V0 + 4
   \   000030   12....       LCALL   ?L_MOV_X
   \   000033   78..         MOV     R0,#?V0 + 0
   \   000035   79..         MOV     R1,#?V0 + 4
   \   000037   12....       LCALL   ?FLT_MUL
   \   00003A   78..         MOV     R0,#?V0 + 0
   \   00003C   12....       LCALL   ?FLT_TO_L
   \   00003F   A9..         MOV     R1,?V0 + 0
   \   000041   7F08         MOV     R7,#0x8
   \   000043   02....       LJMP    ?BANKED_LEAVE_XDATA
     93          }

   \                                 In  segment XDATA_ROM_C, align 1
   \                     __Constant_44b90000:
   \   000000   0000B944     DD 44B90000H

   \                                 In  segment XDATA_ROM_C, align 1
   \                     __Constant_41c80000:
   \   000000   0000C841     DD 41C80000H

   \                                 In  segment BANK_RELAYS, align 1
   \                     ??ReadAdcValue?relay:
   \   000000   12....       LCALL   ?BDISPATCH
   \   000003   ......       DC24    ReadAdcValue

   \                                 In  segment BANK_RELAYS, align 1
   \                     ??Sensor_PIN_INT?relay:
   \   000000   12....       LCALL   ?BDISPATCH
   \   000003   ......       DC24    Sensor_PIN_INT

   \                                 In  segment BANK_RELAYS, align 1
   \                     ??ReadTemp?relay:
   \   000000   12....       LCALL   ?BDISPATCH
   \   000003   ......       DC24    ReadTemp

   Maximum stack usage in bytes:

     Function          ISTACK PSTACK XSTACK
     --------          ------ ------ ------
     ReadAdcValue          0      0     26
     ReadTemp              0      0     16
       -> ReadAdcValue     0      0     32
     Sensor_PIN_INT        0      0      0


   Segment part sizes:

     Function/Label         Bytes
     --------------         -----
     PICTL                     1
     P1IEN                     1
     IEN2                      1
     ADCCON1                   1
     ADCCON3                   1
     ADCL                      1
     ADCH                      1
     APCFG                     1
     P1SEL                     1
     P1DIR                     1
     ReadAdcValue            102
     Sensor_PIN_INT           24
     ReadTemp                 70
     __Constant_44b90000       4
     __Constant_41c80000       4
     ??ReadAdcValue?relay      6
     ??Sensor_PIN_INT?relay    6
     ??ReadTemp?relay          6

 
 196 bytes in segment BANKED_CODE
  18 bytes in segment BANK_RELAYS
  10 bytes in segment SFR_AN
   8 bytes in segment XDATA_ROM_C
 
 214 bytes of CODE  memory
   0 bytes of CONST memory (+  8 bytes shared)
   0 bytes of DATA  memory (+ 10 bytes shared)

Errors: none
Warnings: none
